(lp1
((F157
F111
tF31
F290.49160766601562
F0.0010361343156546354
I-1
tp2
a((F132
F77
tF31
F351.01919555664062
F0.0025103266816586256
I-1
tp3
a((F185
F52
tF31
F116.50076293945312
F0.0022289676126092672
I-1
tp4
a((F135
F79
tF31
F18.186069488525391
F0.0031641204841434956
I-1
tp5
a((F106
F96
tF31
F126.89476776123047
F0.0012305870186537504
I-1
tp6
a((F131
F80
tF31
F352.09072875976562
F0.0021026395261287689
I-1
tp7
a((F109
F67
tF31
F267.9061279296875
F0.0024381079711019993
I-1
tp8
a((F62
F87
tF31
F21.467763900756836
F0.0013119116192683578
I-1
tp9
a((F91
F74
tF31
F219.16641235351562
F0.0019589732401072979
I-1
tp10
a((F95
F132
tF31
F73.174713134765625
F0.0011271134717389941
I-1
tp11
a((F66
F105
tF31
F274.42559814453125
F0.0047323619946837425
I-1
tp12
a((F117
F131
tF31
F311.24462890625
F0.0028501157648861408
I-1
tp13
a((F71
F105
tF31
F290.86627197265625
F0.0037013289984315634
I-1
tp14
a((F112
F104
tF31
F100.27562713623047
F0.0011920756660401821
I-1
tp15
a((F68
F82
tF31
F68.508834838867188
F0.0024973785039037466
I-1
tp16
a((F186
F55
tF31
F74.717987060546875
F0.0024595560971647501
I-1
tp17
a((F79
F83
tF31
F128.41453552246094
F0.0021398433018475771
I-1
tp18
a((F84
F83
tF31
F146.56475830078125
F0.003010203130543232
I-1
tp19
a((F79
F85
tF31
F118.37583160400391
F0.0024008601903915405
I-1
tp20
a((F81
F105
tF31
F257.470458984375
F0.0020467259455472231
I-1
tp21
a((F68
F106
tF31
F277.5555419921875
F0.003995242528617382
I-1
tp22
a((F91
F106
tF31
F258.86294555664062
F0.0041861743666231632
I-1
tp23
a((F94
F104
tF31
F283.25323486328125
F0.0030650382395833731
I-1
tp24
a((F78
F104
tF31
F285.25054931640625
F0.0024417978711426258
I-1
tp25
a((F182
F53
tF31
F158.33372497558594
F0.0012206218671053648
I-1
tp26
a((F134
F71
tF31
F104.28832244873047
F0.0053687146864831448
I-1
tp27
a((F63
F104
tF31
F280.10595703125
F0.0025960172060877085
I-1
tp28
a((F73
F107
tF31
F296.64752197265625
F0.004148595966398716
I-1
tp29
a((F114
F129
tF31
F296.9705810546875
F0.0021097420249134302
I-1
tp30
a((F87
F71
tF31
F225.59080505371094
F0.0011613247916102409
I-1
tp31
a((F116
F40
tF31
F268.64627075195312
F0.0023368711117655039
I-1
tp32
a((F81
F107
tF31
F252.48043823242188
F0.0021205439697951078
I-1
tp33
a((F108
F107
tF31
F79.951446533203125
F0.0052504464983940125
I-1
tp34
a((F187
F70
tF31
F337.82949829101562
F0.0011246968060731888
I-1
tp35
a((F148
F107
tF31
F197.61770629882812
F0.0026293816044926643
I-1
tp36
a((F122
F128
tF31
F290.533447265625
F0.0020226044580340385
I-1
tp37
a((F97
F70
tF31
F247.77383422851562
F0.0022646242287009954
I-1
tp38
a((F59
F89
tF31
F35.916889190673828
F0.0017535429215058684
I-1
tp39
a((F138
F89
tF31
F358.09222412109375
F0.0012714838376268744
I-1
tp40
a((F74
F90
tF31
F57.478485107421875
F0.002054103184491396
I-1
tp41
a((F134
F68
tF31
F127.56683349609375
F0.0016619910020381212
I-1
tp42
a((F68
F108
tF31
F277.78497314453125
F0.0031992807053029537
I-1
tp43
a((F86
F108
tF31
F260.4617919921875
F0.0023250863887369633
I-1
tp44
a((F81
F68
tF31
F230.13560485839844
F0.0012881930451840162
I-1
tp45
a((F184
F57
tF31
F70.756637573242188
F0.0015910802176222205
I-1
tp46
a((F107
F52
tF31
F178.97940063476562
F0.001087103970348835
I-1
tp47
a((F117
F126
tF31
F299.81585693359375
F0.0022337045520544052
I-1
tp48
a((F64
F109
tF31
F242.0208740234375
F0.0018676150357350707
I-1
tp49
a((F109
F126
tF31
F298.81307983398438
F0.0033410738687962294
I-1
tp50
a((F97
F109
tF31
F320.25238037109375
F0.0021237062755972147
I-1
tp51
a((F133
F66
tF31
F143.0811767578125
F0.0013212361373007298
I-1
tp52
a((F80
F93
tF31
F188.03294372558594
F0.0024996080901473761
I-1
tp53
a((F82
F93
tF31
F159.5887451171875
F0.0025564369279891253
I-1
tp54
a((F188
F44
tF31
F218.714599609375
F0.0011714862193912268
I-1
tp55
a((F101
F109
tF31
F354.27328491210938
F0.0033951711375266314
I-1
tp56
a((F111
F65
tF31
F263.23153686523438
F0.0033182969782501459
I-1
tp57
a((F101
F103
tF31
F45.124996185302734
F0.0035149860195815563
I-1
tp58
a((F111
F109
tF31
F88.672218322753906
F0.0024848526809364557
I-1
tp59
a((F82
F95
tF31
F189.421142578125
F0.002039734972640872
I-1
tp60
a((F106
F125
tF31
F324.51898193359375
F0.0019681386183947325
I-1
tp61
a((F78
F110
tF31
F265.88528442382812
F0.0026975171640515327
I-1
tp62
a((F64
F96
tF31
F334.1455078125
F0.0019923490472137928
I-1
tp63
a((F81
F111
tF31
F247.06378173828125
F0.002983560785651207
I-1
tp64
a((F87
F96
tF31
F164.21318054199219
F0.0029441656079143286
I-1
tp65
a((F175
F50
tF31
F233.16464233398438
F0.0019910989794880152
I-1
tp66
a((F103
F111
tF31
F13.532018661499023
F0.003294261870905757
I-1
tp67
a((F104
F63
tF31
F267.00210571289062
F0.0012195163872092962
I-1
tp68
a((F89
F102
tF31
F241.22381591796875
F0.0036877014208585024
I-1
tp69
a((F183
F46
tF31
F228.89584350585938
F0.0012377517996355891
I-1
tp70
a((F108
F113
tF31
F56.926334381103516
F0.0032199474517256021
I-1
tp71
a((F67
F97
tF31
F308.67349243164062
F0.0024460172280669212
I-1
tp72
a((F114
F124
tF31
F275.27264404296875
F0.0024364546407014132
I-1
tp73
a((F90
F97
tF31
F184.74906921386719
F0.0028173357713967562
I-1
tp74
a((F87
F101
tF31
F242.70854187011719
F0.0027751412708312273
I-1
tp75
a((F79
F98
tF31
F271.91015625
F0.0013597432989627123
I-1
tp76
a((F74
F101
tF31
F281.35443115234375
F0.0017911799950525165
I-1
tp77
a((F100
F114
tF31
F346.71820068359375
F0.0020589258056133986
I-1
tp78
a((F110
F114
tF31
F75.380126953125
F0.0030299671925604343
I-1
tp79
a((F115
F114
tF31
F52.455703735351562
F0.0031036753207445145
I-1
tp80
a((F64
F101
tF31
F296.79791259765625
F0.0015540565364062786
I-1
tp81
a((F106
F59
tF31
F212.57940673828125
F0.0017489597667008638
I-1
tp82
a((F154
F60
tF31
F287.75433349609375
F0.0017620279686525464
I-1
tp83
a((F182
F49
tF31
F223.07054138183594
F0.0011432904284447432
I-1
tp84
a((F94
F100
tF31
F236.48023986816406
F0.0035706127528101206
I-1
tp85
a((F71
F100
tF31
F293.2779541015625
F0.0035087887663394213
I-1
tp86
a((F107
F120
tF31
F337.75555419921875
F0.0022988533601164818
I-1
tp87
a((F82
F99
tF31
F212.5338134765625
F0.0028591202571988106
I-1
tp88
a((F105
F48
tF31
F212.49568176269531
F0.0018558306619524956
I-1
tp89
a((F166
F130
tF31
F352.41641235351562
F0.00079895264934748411
I-1
tp90
a((F140
F99
tF31
F111.91986083984375
F0.0010154127376154065
I-1
tp91
a((F106
F67
tF31
F268.68026733398438
F0.0008165829349309206
I-1
tp92
a((F129
F118
tF31
F248.12271118164062
F0.00094583717873319983
I-1
tp93
a((F155
F57
tF31
F278.46487426757812
F0.00098142237402498722
I-1
tp94
a((F197
F51
tF31
F34.610923767089844
F0.0010036604944616556
I-1
tp95
a((F193
F51
tF31
F37.520229339599609
F0.00085206155199557543
I-1
tp96
a((F175
F86
tF31
F37.939041137695312
F0.0010039564222097397
I-1
tp97
a((F166
F133
tF31
F358.94021606445312
F0.00087255530524998903
I-1
tp98
a((F96
F105
tF31
F273.06362915039062
F0.00099097867496311665
I-1
tp99
a((F164
F62
tF31
F289.75732421875
F0.00094905833248049021
I-1
tp100
a((F62
F83
tF31
F15.357001304626465
F0.00096006016246974468
I-1
tp101
a((F168
F129
tF31
F51.625236511230469
F0.0009398530819453299
I-1
tp102
a((F105
F46
tF31
F225.36801147460938
F0.00067530048545449972
I-1
tp103
a((F186
F115
tF31
F244.51449584960938
F0.00076562853064388037
I-1
tp104
a((F129
F122
tF31
F240.57858276367188
F0.00073760206578299403
I-1
tp105
a((F191
F44
tF31
F213.0771484375
F0.00075332267442718148
I-1
tp106
a((F57
F39
tF31
F133.09567260742188
F0.00076952867675572634
I-1
tp107
a((F87
F117
tF31
F265.43411254882812
F0.00061712280148640275
I-1
tp108
a((F47
F57
tF31
F335.96148681640625
F0.00062291475478559732
I-1
tp109
a((F172
F133
tF31
F17.734752655029297
F0.00061641546199098229
I-1
tp110
a((F86.400001525878906
F79.200004577636719
tF37.200000762939453
F181.2757568359375
F0.00090770702809095383
I-1
tp111
a((F109.20000457763672
F126.00000762939453
tF37.200000762939453
F322.5172119140625
F0.0033564688637852669
I-1
tp112
a((F64.800003051757812
F85.200004577636719
tF37.200000762939453
F26.123384475708008
F0.0016625802963972092
I-1
tp113
a((F63.600002288818359
F100.80000305175781
tF37.200000762939453
F278.97186279296875
F0.0015356083167716861
I-1
tp114
a((F115.20000457763672
F124.80000305175781
tF37.200000762939453
F299.88668823242188
F0.0016556112095713615
I-1
tp115
a((F129.60000610351562
F122.40000152587891
tF37.200000762939453
F227.58335876464844
F0.00094892503693699837
I-1
tp116
a((F66
F100.80000305175781
tF37.200000762939453
F284.33868408203125
F0.0013245707377791405
I-1
tp117
a((F116.40000152587891
F39.600002288818359
tF37.200000762939453
F260.52337646484375
F0.0016588576836511493
I-1
tp118
a((F109.20000457763672
F122.40000152587891
tF37.200000762939453
F327.52212524414062
F0.0022785549517720938
I-1
tp119
a((F108.00000762939453
F102.00000762939453
tF37.200000762939453
F95.42559814453125
F0.0012348828604444861
I-1
tp120
a((F106.80000305175781
F121.20000457763672
tF37.200000762939453
F341.98831176757812
F0.0016069174744188786
I-1
tp121
a((F114.00000762939453
F40.800003051757812
tF37.200000762939453
F252.56674194335938
F0.0013858340680599213
I-1
tp122
a((F110.40000152587891
F103.20000457763672
tF37.200000762939453
F87.157859802246094
F0.00091418594820424914
I-1
tp123
a((F96
F104.40000152587891
tF37.200000762939453
F239.06500244140625
F0.0014272823464125395
I-1
tp124
a((F66
F105.60000610351562
tF37.200000762939453
F268.4869384765625
F0.0033621028997004032
I-1
tp125
a((F183.60000610351562
F56.400001525878906
tF37.200000762939453
F4.0577144622802734
F0.00094258697936311364
I-1
tp126
a((F112.80000305175781
F109.20000457763672
tF37.200000762939453
F64.729751586914062
F0.0017629775684326887
I-1
tp127
a((F116.40000152587891
F114.00000762939453
tF37.200000762939453
F63.313392639160156
F0.0012553734704852104
I-1
tp128
a((F109.20000457763672
F114.00000762939453
tF37.200000762939453
F22.685388565063477
F0.0015829006442800164
I-1
tp129
a((F98.400001525878906
F114.00000762939453
tF37.200000762939453
F330.41973876953125
F0.0013553767930716276
I-1
tp130
a((F103.20000457763672
F110.40000152587891
tF37.200000762939453
F4.477137565612793
F0.0025339897256344557
I-1
tp131
a((F80.400001525878906
F110.40000152587891
tF37.200000762939453
F251.3636474609375
F0.0027783447876572609
I-1
tp132
a((F110.40000152587891
F109.20000457763672
tF37.200000762939453
F58.005828857421875
F0.0029426231049001217
I-1
tp133
a((F97.200004577636719
F109.20000457763672
tF37.200000762939453
F308.85491943359375
F0.001588608487509191
I-1
tp134
a((F103.20000457763672
F63.600002288818359
tF37.200000762939453
F257.99334716796875
F0.0013923225924372673
I-1
tp135
a((F63.600002288818359
F109.20000457763672
tF37.200000762939453
F248.48910522460938
F0.0013205964351072907
I-1
tp136
a((F86.400001525878906
F108.00000762939453
tF37.200000762939453
F262.01089477539062
F0.0021506801713258028
I-1
tp137
a((F111.60000610351562
F66
tF37.200000762939453
F260.5860595703125
F0.0025790107902139425
I-1
tp138
a((F133.20001220703125
F66
tF37.200000762939453
F125.81037902832031
F0.0010708071058616042
I-1
tp139
a((F79.200004577636719
F67.200004577636719
tF37.200000762939453
F236.83905029296875
F0.00090902857482433319
I-1
tp140
a((F147.60000610351562
F106.80000305175781
tF37.200000762939453
F209.06842041015625
F0.0024084937758743763
I-1
tp141
a((F105.60000610351562
F48
tF37.200000762939453
F222.30914306640625
F0.0016301076393574476
I-1
tp142
a((F73.200004577636719
F106.80000305175781
tF37.200000762939453
F267.98446655273438
F0.0035698083229362965
I-1
tp143
a((F68.400001525878906
F106.80000305175781
tF37.200000762939453
F275.08572387695312
F0.0032291780225932598
I-1
tp144
a((F91.200004577636719
F105.60000610351562
tF37.200000762939453
F272.83444213867188
F0.0030542644672095776
I-1
tp145
a((F79.200004577636719
F105.60000610351562
tF37.200000762939453
F259.61468505859375
F0.0021006143651902676
I-1
tp146
a((F134.40000915527344
F68.400001525878906
tF37.200000762939453
F102.03096771240234
F0.002673417329788208
I-1
tp147
a((F112.80000305175781
F104.40000152587891
tF37.200000762939453
F79.398689270019531
F0.0011441746028140187
I-1
tp148
a((F102.00000762939453
F104.40000152587891
tF37.200000762939453
F88.288825988769531
F0.0025242727715522051
I-1
tp149
a((F175.20001220703125
F50.400001525878906
tF37.200000762939453
F241.65812683105469
F0.0012993260752409697
I-1
tp150
a((F62.400001525878906
F103.20000457763672
tF37.200000762939453
F273.19784545898438
F0.0016624078853055835
I-1
tp151
a((F97.200004577636719
F70.800003051757812
tF37.200000762939453
F235.83828735351562
F0.0013661975972354412
I-1
tp152
a((F187.20001220703125
F70.800003051757812
tF37.200000762939453
F347.74896240234375
F0.00099897512700408697
I-1
tp153
a((F182.40000915527344
F52.800003051757812
tF37.200000762939453
F262.5423583984375
F0.00095370999770238996
I-1
tp154
a((F165.60000610351562
F61.200000762939453
tF37.200000762939453
F286.03759765625
F0.0010545686818659306
I-1
tp155
a((F88.800003051757812
F102.00000762939453
tF37.200000762939453
F241.90892028808594
F0.0026102790143340826
I-1
tp156
a((F94.800003051757812
F100.80000305175781
tF37.200000762939453
F177.34346008300781
F0.0028605929110199213
I-1
tp157
a((F72
F100.80000305175781
tF37.200000762939453
F281.52651977539062
F0.0015904541360214353
I-1
tp158
a((F86.400001525878906
F72
tF37.200000762939453
F220.0491943359375
F0.0013267179019749165
I-1
tp159
a((F81.600006103515625
F98.400001525878906
tF37.200000762939453
F242.65390014648438
F0.0023213345557451248
I-1
tp160
a((F87.600006103515625
F97.200004577636719
tF37.200000762939453
F159.0677490234375
F0.0028222175315022469
I-1
tp161
a((F79.200004577636719
F97.200004577636719
tF37.200000762939453
F236.25909423828125
F0.0019850116223096848
I-1
tp162
a((F64.800003051757812
F97.200004577636719
tF37.200000762939453
F308.45709228515625
F0.0016208125744014978
I-1
tp163
a((F133.20001220703125
F72
tF37.200000762939453
F80.445220947265625
F0.0043892776593565941
I-1
tp164
a((F80.400001525878906
F93.600006103515625
tF37.200000762939453
F177.04327392578125
F0.0022603957913815975
I-1
tp165
a((F74.400001525878906
F91.200004577636719
tF37.200000762939453
F84.880714416503906
F0.0016321324510499835
I-1
tp166
a((F58.800003051757812
F90
tF37.200000762939453
F351.32675170898438
F0.0012906307820230722
I-1
tp167
a((F188.40000915527344
F55.200000762939453
tF37.200000762939453
F32.621074676513672
F0.0018979074666276574
I-1
tp168
a((F154.80000305175781
F60.000003814697266
tF37.200000762939453
F289.16650390625
F0.0012139069149270654
I-1
tp169
a((F90
F74.400001525878906
tF37.200000762939453
F211.05622863769531
F0.0018481648294255137
I-1
tp170
a((F79.200004577636719
F85.200004577636719
tF37.200000762939453
F140.96624755859375
F0.0030367374420166016
I-1
tp171
a((F84
F84
tF37.200000762939453
F146.6912841796875
F0.0027192190755158663
I-1
tp172
a((F68.400001525878906
F82.800003051757812
tF37.200000762939453
F334.99661254882812
F0.0026340309996157885
I-1
tp173
a((F62.400001525878906
F82.800003051757812
tF37.200000762939453
F354.40264892578125
F0.0010903497459366918
I-1
tp174
a((F130.80000305175781
F80.400001525878906
tF37.200000762939453
F5.5128536224365234
F0.0012619225308299065
I-1
tp175
a((F105.60000610351562
F58.800003051757812
tF37.200000762939453
F226.7996826171875
F0.0011495101498439908
I-1
tp176
a((F133.20001220703125
F78
tF37.200000762939453
F22.300857543945312
F0.0020223343744874001
I-1
tp177
a((F54.000003814697266
F37.200000762939453
tF37.200000762939453
F127.52447509765625
F0.00064458779525011778
I-1
tp178
a((F138
F88.800003051757812
tF37.200000762939453
F26.554435729980469
F0.00088945945026353002
I-1
tp179
a((F175.20001220703125
F85.200004577636719
tF37.200000762939453
F41.781352996826172
F0.00081560551188886166
I-1
tp180
a((F175.20001220703125
F54.000003814697266
tF37.200000762939453
F258.44049072265625
F0.00064534449484199286
I-1
tp181
a((F109.20000457763672
F98.400001525878906
tF37.200000762939453
F105.34870147705078
F0.00074165739351883531
I-1
tp182
a((F108.00000762939453
F52.800003051757812
tF37.200000762939453
F203.36506652832031
F0.00084223906742408872
I-1
tp183
a((F196.80000305175781
F51.600002288818359
tF37.200000762939453
F54.731464385986328
F0.00086723110871389508
I-1
tp184
a((F129.60000610351562
F117.60000610351562
tF37.200000762939453
F250.37413024902344
F0.00085891218623146415
I-1
tp185
a((F108.00000762939453
F57.600002288818359
tF37.200000762939453
F204.78312683105469
F0.00079032260691747069
I-1
tp186
a((F154.80000305175781
F111.60000610351562
tF37.200000762939453
F227.06900024414062
F0.00070521427551284432
I-1
tp187
a((F158.40000915527344
F111.60000610351562
tF37.200000762939453
F265.03515625
F0.00066337449243292212
I-1
tp188
a((F85.200004577636719
F117.60000610351562
tF37.200000762939453
F280.02474975585938
F0.00066818820778280497
I-1
tp189
a((F183.60000610351562
F45.600002288818359
tF37.200000762939453
F214.83590698242188
F0.00080268166493624449
I-1
tp190
a((F152.40000915527344
F111.60000610351562
tF37.200000762939453
F210.79055786132812
F0.00047964724944904447
I-1
tp191
a((F193.20001220703125
F54.000003814697266
tF37.200000762939453
F48.999824523925781
F0.00049738324014469981
I-1
tp192
a((F158.40000915527344
F108.00000762939453
tF37.200000762939453
F272.477294921875
F0.00051625416381284595
I-1
tp193
a((F184.80000305175781
F58.800003051757812
tF37.200000762939453
F31.837175369262695
F0.00050790497334674001
I-1
tp194
a((F188.40000915527344
F44.400001525878906
tF37.200000762939453
F187.11369323730469
F0.00055015849648043513
I-1
tp195
a((F156
F56.400001525878906
tF37.200000762939453
F279.70803833007812
F0.00048888393212109804
I-1
tp196
a((F128.40000915527344
F126.00000762939453
tF37.200000762939453
F241.65020751953125
F0.00055197248002514243
I-1
tp197
a((F140.40000915527344
F99.600006103515625
tF37.200000762939453
F107.98396301269531
F0.00064455653773620725
I-1
tp198
a((F58.800003051757812
F105.60000610351562
tF37.200000762939453
F259.98947143554688
F0.00055144942598417401
I-1
tp199
a((F57.600002288818359
F38.400001525878906
tF37.200000762939453
F129.53448486328125
F0.00046312829363159835
I-1
tp200
a((F72
F100.80000305175781
tF44.640003204345703
F279.92306518554688
F0.0011967163300141692
I-1
tp201
a((F87.840003967285156
F97.920005798339844
tF44.640003204345703
F176.3385009765625
F0.0025214455090463161
I-1
tp202
a((F80.639999389648438
F97.920005798339844
tF44.640003204345703
F239.01109313964844
F0.0018367384327575564
I-1
tp203
a((F64.800003051757812
F97.920005798339844
tF44.640003204345703
F305.9320068359375
F0.001284528523683548
I-1
tp204
a((F87.840003967285156
F100.80000305175781
tF44.640003204345703
F209.09532165527344
F0.0017803540686145425
I-1
tp205
a((F95.040000915527344
F102.24000549316406
tF44.640003204345703
F148.95236206054688
F0.0025163562968373299
I-1
tp206
a((F108.00000762939453
F102.24000549316406
tF44.640003204345703
F77.58282470703125
F0.0014400593936443329
I-1
tp207
a((F109.44000244140625
F113.76000213623047
tF44.640003204345703
F1.6298260688781738
F0.0016023893840610981
I-1
tp208
a((F105.12000274658203
F47.520000457763672
tF44.640003204345703
F257.22958374023438
F0.0015771186444908381
I-1
tp209
a((F80.639999389648438
F93.600006103515625
tF44.640003204345703
F153.85047912597656
F0.0021248434204608202
I-1
tp210
a((F84.960006713867188
F103.68000793457031
tF44.640003204345703
F271.67437744140625
F0.0035596739035099745
I-1
tp211
a((F73.44000244140625
F89.280006408691406
tF44.640003204345703
F132.71563720703125
F0.0014568889746442437
I-1
tp212
a((F84.960006713867188
F84.960006713867188
tF44.640003204345703
F154.23112487792969
F0.0014369514537975192
I-1
tp213
a((F79.200004577636719
F84.960006713867188
tF44.640003204345703
F156.71295166015625
F0.002635336946696043
I-1
tp214
a((F72
F105.12000274658203
tF44.640003204345703
F258.87786865234375
F0.0022324169985949993
I-1
tp215
a((F69.120002746582031
F82.080001831054688
tF44.640003204345703
F260.24917602539062
F0.0024398826062679291
I-1
tp216
a((F74.8800048828125
F110.8800048828125
tF44.640003204345703
F241.9849853515625
F0.002174734603613615
I-1
tp217
a((F86.400001525878906
F79.200004577636719
tF44.640003204345703
F185.13166809082031
F0.0013162688119336963
I-1
tp218
a((F79.200004577636719
F105.12000274658203
tF44.640003204345703
F262.97906494140625
F0.0017700279131531715
I-1
tp219
a((F90.720001220703125
F105.12000274658203
tF44.640003204345703
F258.99267578125
F0.0027250437997281551
I-1
tp220
a((F112.32000732421875
F109.44000244140625
tF44.640003204345703
F52.688591003417969
F0.0018446388421580195
I-1
tp221
a((F145.44000244140625
F106.56000518798828
tF44.640003204345703
F196.45762634277344
F0.0021811542101204395
I-1
tp222
a((F129.60000610351562
F76.319999694824219
tF44.640003204345703
F28.375787734985352
F0.0017328831600025296
I-1
tp223
a((F151.20001220703125
F106.56000518798828
tF44.640003204345703
F216.5087890625
F0.001279521151445806
I-1
tp224
a((F89.280006408691406
F73.44000244140625
tF44.640003204345703
F210.00714111328125
F0.0017706271028146148
I-1
tp225
a((F69.120002746582031
F108.00000762939453
tF44.640003204345703
F250.38418579101562
F0.0020807022228837013
I-1
tp226
a((F109.44000244140625
F109.44000244140625
tF44.640003204345703
F38.93621826171875
F0.0024319917429238558
I-1
tp227
a((F102.24000549316406
F109.44000244140625
tF44.640003204345703
F3.9928195476531982
F0.0018620645860210061
I-1
tp228
a((F86.400001525878906
F72
tF44.640003204345703
F221.04827880859375
F0.0019207987934350967
I-1
tp229
a((F132.48001098632812
F70.560005187988281
tF44.640003204345703
F38.421207427978516
F0.0035458970814943314
I-1
tp230
a((F86.400001525878906
F108.00000762939453
tF44.640003204345703
F282.76666259765625
F0.00192191859241575
I-1
tp231
a((F79.200004577636719
F109.44000244140625
tF44.640003204345703
F260.77108764648438
F0.0024627887178212404
I-1
tp232
a((F108.00000762939453
F64.800003051757812
tF44.640003204345703
F249.6241455078125
F0.0037870896048843861
I-1
tp233
a((F174.24000549316406
F84.960006713867188
tF44.640003204345703
F15.199019432067871
F0.00083214306505396962
I-1
tp234
a((F97.920005798339844
F109.44000244140625
tF44.640003204345703
F319.05551147460938
F0.0011418468784540892
I-1
tp235
a((F103.68000793457031
F99.360000610351562
tF44.640003204345703
F103.69484710693359
F0.00086448632646352053
I-1
tp236
a((F84.960006713867188
F67.680000305175781
tF44.640003204345703
F227.8919677734375
F0.00101305334828794
I-1
tp237
a((F108.00000762939453
F97.920005798339844
tF44.640003204345703
F90.26318359375
F0.00096453877631574869
I-1
tp238
a((F96.480003356933594
F70.560005187988281
tF44.640003204345703
F236.35614013671875
F0.0011224031914025545
I-1
tp239
a((F105.12000274658203
F96.480003356933594
tF44.640003204345703
F104.26519775390625
F0.00084478402277454734
I-1
tp240
a((F83.520004272460938
F116.64000701904297
tF44.640003204345703
F297.98760986328125
F0.00090046209516003728
I-1
tp241
a((F154.08000183105469
F60.480003356933594
tF44.640003204345703
F292.38192749023438
F0.00095711718313395977
I-1
tp242
a((F116.64000701904297
F113.76000213623047
tF44.640003204345703
F47.933525085449219
F0.00094970600912347436
I-1
tp243
a((F105.12000274658203
F59.040000915527344
tF44.640003204345703
F233.32154846191406
F0.0011125383898615837
I-1
tp244
a((F180
F47.520000457763672
tF44.640003204345703
F218.47494506835938
F0.00083630951121449471
I-1
tp245
a((F61.920001983642578
F103.68000793457031
tF44.640003204345703
F259.0245361328125
F0.0011889628367498517
I-1
tp246
a((F61.920001983642578
F92.160003662109375
tF44.640003204345703
F318.596435546875
F0.0010575222549960017
I-1
tp247
a((F97.920005798339844
F113.76000213623047
tF44.640003204345703
F318.59722900390625
F0.00093557167565450072
I-1
tp248
a((F187.20001220703125
F54.720001220703125
tF44.640003204345703
F8.7762689590454102
F0.001109257573261857
I-1
tp249
a((F57.600002288818359
F89.280006408691406
tF44.640003204345703
F333.98495483398438
F0.00093335029669106007
I-1
tp250
a((F129.60000610351562
F80.639999389648438
tF44.640003204345703
F18.300222396850586
F0.00085882173152640462
I-1
tp251
a((F174.24000549316406
F50.400001525878906
tF44.640003204345703
F246.61705017089844
F0.00093331106472760439
I-1
tp252
a((F61.920001983642578
F83.520004272460938
tF44.640003204345703
F303.21759033203125
F0.0010793058900162578
I-1
tp253
a((F151.20001220703125
F59.040000915527344
tF44.640003204345703
F289.8074951171875
F0.00055858457926660776
I-1
tp254
a((F106.56000518798828
F51.840003967285156
tF44.640003204345703
F234.5692138671875
F0.00081833120202645659
I-1
tp255
a((F86.400001525878906
F112.32000732421875
tF44.640003204345703
F290.94888305664062
F0.00067382247652858496
I-1
tp256
a((F63.360000610351562
F109.44000244140625
tF44.640003204345703
F255.78225708007812
F0.00077543081715703011
I-1
tp257
a((F181.44000244140625
F53.280002593994141
tF44.640003204345703
F291.27676391601562
F0.00070727156708016992
I-1
tp258
a((F79.200004577636719
F67.680000305175781
tF44.640003204345703
F233.97782897949219
F0.00071776111144572496
I-1
tp259
a((F112.32000732421875
F103.68000793457031
tF44.640003204345703
F74.108863830566406
F0.00077095435699447989
I-1
tp260
a((F136.80000305175781
F89.280006408691406
tF44.640003204345703
F40.677963256835938
F0.00056636397494003177
I-1
tp261
a((F165.60000610351562
F61.920001983642578
tF44.640003204345703
F285.48764038085938
F0.00077281577978283167
I-1
tp262
a((F69.120002746582031
F110.8800048828125
tF44.640003204345703
F239.88711547851562
F0.00082049070624634624
I-1
tp263
a((F182.8800048828125
F56.160003662109375
tF44.640003204345703
F333.37466430664062
F0.0007263311417773366
I-1
tp264
a((F185.760009765625
F70.560005187988281
tF44.640003204345703
F10.919032096862793
F0.00072007806738838553
I-1
tp265
a((F108.00000762939453
F57.600002288818359
tF44.640003204345703
F227.97491455078125
F0.00069803610676899552
I-1
tp266
a((F106.56000518798828
F93.600006103515625
tF44.640003204345703
F102.41548919677734
F0.00063621933804824948
I-1
tp267
a((F139.68000793457031
F99.360000610351562
tF44.640003204345703
F340.98373413085938
F0.00040687451837584376
I-1
tp268
a((F154.08000183105469
F112.32000732421875
tF44.640003204345703
F232.1058349609375
F0.00045471682096831501
I-1
tp269
a((F182.8800048828125
F46.080001831054688
tF44.640003204345703
F187.81735229492188
F0.00052982079796493053
I-1
tp270
a((F175.68000793457031
F89.280006408691406
tF44.640003204345703
F20.777288436889648
F0.0005079239490441978
I-1
tp271
a((F126.72000122070312
F116.64000701904297
tF44.640003204345703
F35.499580383300781
F0.00050239637494087219
I-1
tp272
a((F156.96000671386719
F112.32000732421875
tF44.640003204345703
F247.80604553222656
F0.00044022974907420576
I-1
tp273
a((F187.20001220703125
F44.640003204345703
tF44.640003204345703
F138.84085083007812
F0.00044400556362234056
I-1
tp274
a((F100.80000305175781
F97.920005798339844
tF44.640003204345703
F111.35816955566406
F0.00040714262286201119
I-1
tp275
a((F183.16801452636719
F53.568004608154297
tF53.568004608154297
F303.5728759765625
F0.00072425801772624254
I-1
tp276
a((F112.32000732421875
F108.864013671875
tF53.568004608154297
F28.480806350708008
F0.0019784150645136833
I-1
tp277
a((F188.35202026367188
F53.568004608154297
tF53.568004608154297
F1.0905600786209106
F0.00095129030523821712
I-1
tp278
a((F108.864013671875
F108.864013671875
tF53.568004608154297
F29.015684127807617
F0.0022480925545096397
I-1
tp279
a((F88.128005981445312
F108.864013671875
tF53.568004608154297
F288.42349243164062
F0.00087110587628558278
I-1
tp280
a((F105.40801239013672
F58.752006530761719
tF53.568004608154297
F242.65362548828125
F0.0011267401278018951
I-1
tp281
a((F153.79200744628906
F58.752006530761719
tF53.568004608154297
F287.79476928710938
F0.00097517413087189198
I-1
tp282
a((F74.304008483886719
F108.864013671875
tF53.568004608154297
F236.58316040039062
F0.0016024901997298002
I-1
tp283
a((F98.496009826660156
F107.13600921630859
tF53.568004608154297
F31.002569198608398
F0.001185609376989305
I-1
tp284
a((F70.848007202148438
F107.13600921630859
tF53.568004608154297
F230.62677001953125
F0.0012860432034358382
I-1
tp285
a((F107.13600921630859
F63.936004638671875
tF53.568004608154297
F238.8311767578125
F0.0031896056607365608
I-1
tp286
a((F114.04801177978516
F63.936004638671875
tF53.568004608154297
F243.93936157226562
F0.0010774142574518919
I-1
tp287
a((F152.06401062011719
F105.40801239013672
tF53.568004608154297
F247.6734619140625
F0.00093259976711124182
I-1
tp288
a((F145.15200805664062
F105.40801239013672
tF53.568004608154297
F253.84339904785156
F0.0017578057013452053
I-1
tp289
a((F84.672004699707031
F67.392005920410156
tF53.568004608154297
F222.7742919921875
F0.0009403596050105989
I-1
tp290
a((F91.584007263183594
F103.68000793457031
tF53.568004608154297
F177.88116455078125
F0.0023295192513614893
I-1
tp291
a((F96.76800537109375
F69.120010375976562
tF53.568004608154297
F226.257568359375
F0.00090688304044306278
I-1
tp292
a((F133.05601501464844
F69.120010375976562
tF53.568004608154297
F337.763671875
F0.0029145532753318548
I-1
tp293
a((F72.576004028320312
F103.68000793457031
tF53.568004608154297
F250.28228759765625
F0.0020219970028847456
I-1
tp294
a((F138.24002075195312
F74.304008483886719
tF53.568004608154297
F20.061788558959961
F0.00196438143029809
I-1
tp295
a((F112.32000732421875
F101.95201110839844
tF53.568004608154297
F66.7579345703125
F0.00084235967369750142
I-1
tp296
a((F136.51200866699219
F77.760009765625
tF53.568004608154297
F43.300491333007812
F0.0010936978505924344
I-1
tp297
a((F88.128005981445312
F79.488006591796875
tF53.568004608154297
F186.79130554199219
F0.001531776855699718
I-1
tp298
a((F95.040008544921875
F101.95201110839844
tF53.568004608154297
F125.21607971191406
F0.0018357991939410567
I-1
tp299
a((F63.936004638671875
F81.216011047363281
tF53.568004608154297
F276.83700561523438
F0.0012836324749514461
I-1
tp300
a((F70.848007202148438
F81.216011047363281
tF53.568004608154297
F229.41822814941406
F0.0018524944316595793
I-1
tp301
a((F79.488006591796875
F82.944007873535156
tF53.568004608154297
F189.0537109375
F0.0018447018228471279
I-1
tp302
a((F84.672004699707031
F101.95201110839844
tF53.568004608154297
F239.85409545898438
F0.0026395439635962248
I-1
tp303
a((F86.400009155273438
F84.672004699707031
tF53.568004608154297
F175.63175964355469
F0.00072689884109422565
I-1
tp304
a((F62.2080078125
F86.400009155273438
tF53.568004608154297
F292.39306640625
F0.00093963247491046786
I-1
tp305
a((F107.13600921630859
F100.22400665283203
tF53.568004608154297
F82.35321044921875
F0.00096430425764992833
I-1
tp306
a((F72.576004028320312
F88.128005981445312
tF53.568004608154297
F234.60028076171875
F0.0011323923245072365
I-1
tp307
a((F103.68000793457031
F98.496009826660156
tF53.568004608154297
F93.477218627929688
F0.00084589549805969
I-1
tp308
a((F88.128005981445312
F98.496009826660156
tF53.568004608154297
F200.41871643066406
F0.0016855364665389061
I-1
tp309
a((F95.040008544921875
F96.76800537109375
tF53.568004608154297
F144.97174072265625
F0.0013534756144508719
I-1
tp310
a((F65.664009094238281
F96.76800537109375
tF53.568004608154297
F278.08505249023438
F0.00096546421991661191
I-1
tp311
a((F81.216011047363281
F95.040008544921875
tF53.568004608154297
F209.39349365234375
F0.0021096540149301291
I-1
tp312
a((F129.60000610351562
F79.488006591796875
tF53.568004608154297
F36.952552795410156
F0.00042066784226335585
I-1
tp313
a((F107.13600921630859
F53.568004608154297
tF53.568004608154297
F257.18692016601562
F0.00063284899806603789
I-1
tp314
a((F184.89601135253906
F58.752006530761719
tF53.568004608154297
F339.19009399414062
F0.00062597094802185893
I-1
tp315
a((F167.61601257324219
F60.480007171630859
tF53.568004608154297
F294.10369873046875
F0.0006733943591825664
I-1
tp316
a((F103.68000793457031
F95.040008544921875
tF53.568004608154297
F102.51651000976562
F0.00042349615250714123
I-1
tp317
a((F91.584007263183594
F91.584007263183594
tF53.568004608154297
F154.71025085449219
F0.00060700892936438322
I-1
tp318
a((F88.128005981445312
F89.856010437011719
tF53.568004608154297
F162.98794555664062
F0.00069679692387580872
I-1
tp319
a((F100.22400665283203
F96.76800537109375
tF53.568004608154297
F115.40525817871094
F0.00043416835251264274
I-1
tp320
a((F79.488006591796875
F67.392005920410156
tF53.568004608154297
F218.24504089355469
F0.00047733951942063868
I-1
tp321
a((F88.128005981445312
F67.392005920410156
tF53.568004608154297
F221.75762939453125
F0.00069724267814308405
I-1
tp322
a((F110.59201049804688
F98.496009826660156
tF53.568004608154297
F76.874313354492188
F0.00072112685302272439
I-1
tp323
a((F184.89601135253906
F70.848007202148438
tF53.568004608154297
F19.597085952758789
F0.00068553397431969643
I-1
tp324
a((F57.024005889892578
F88.128005981445312
tF53.568004608154297
F290.23648071289062
F0.0006206973921507597
I-1
tp325
a((F60.480007171630859
F101.95201110839844
tF53.568004608154297
F269.24664306640625
F0.00058938178699463606
I-1
tp326
a((F176.25601196289062
F82.944007873535156
tF53.568004608154297
F351.4554443359375
F0.00048148806672543287
I-1
tp327
a((F107.13600921630859
F91.584007263183594
tF53.568004608154297
F102.82952880859375
F0.00042993566603399813
I-1
tp328
a((F115.77600860595703
F101.95201110839844
tF53.568004608154297
F72.09747314453125
F0.00037871600943617523
I-1
tp329
a((F95.040008544921875
F93.31201171875
tF53.568004608154297
F148.83155822753906
F0.00041612342465668917
I-1
tp330
a((F136.51200866699219
F88.128005981445312
tF53.568004608154297
F44.406040191650391
F0.00039242880302481353
I-1
tp331
a((F193.5360107421875
F74.304008483886719
tF53.568004608154297
F286.30453491210938
F2.3350636183749884e-05
I-1
tp332
a((F138.24002075195312
F101.95201110839844
tF53.568004608154297
F0.72950905561447144
F0.00020565165323205292
I-1
tp333
a((F58.752006530761719
F105.40801239013672
tF53.568004608154297
F230.63233947753906
F0.00036196320434100926
I-1
tp334
a((F176.25601196289062
F88.128005981445312
tF53.568004608154297
F338.72103881835938
F0.0003572388959582895
I-1
tp335
a((F141.69601440429688
F98.496009826660156
tF53.568004608154297
F1.8323730230331421
F0.00025878541055135429
I-1
tp336
a((F79.488006591796875
F62.2080078125
tF53.568004608154297
F202.57223510742188
F0.000246621755650267
I-1
tp337
a((F62.2080078125
F57.024005889892578
tF53.568004608154297
F147.605712890625
F-3.6400276712811319e-06
I-1
tp338
a((F114.04801940917969
F64.281608581542969
tF64.281608581542969
F257.46112060546875
F0.0014104295987635851
I-1
tp339
a((F153.44642639160156
F64.281608581542969
tF64.281608581542969
F295.72366333007812
F0.00069621112197637558
I-1
tp340
a((F76.723213195800781
F66.355209350585938
tF64.281608581542969
F188.94842529296875
F0.00029230437939986587
I-1
tp341
a((F105.75361633300781
F66.355209350585938
tF64.281608581542969
F224.58253479003906
F0.0014684360940009356
I-1
tp342
a((F118.19521331787109
F66.355209350585938
tF64.281608581542969
F269.93109130859375
F-0.00022235374490264803
I-1
tp343
a((F97.459213256835938
F68.428810119628906
tF64.281608581542969
F212.4398193359375
F0.00060123694129288197
I-1
tp344
a((F132.71041870117188
F68.428810119628906
tF64.281608581542969
F317.07720947265625
F0.0022578081116080284
I-1
tp345
a((F78.79681396484375
F72.576011657714844
tF64.281608581542969
F208.49720764160156
F0.00012824893929064274
I-1
tp346
a((F87.091209411621094
F74.649612426757812
tF64.281608581542969
F207.57980346679688
F0.0008923180284909904
I-1
tp347
a((F138.93121337890625
F74.649612426757812
tF64.281608581542969
F353.630615234375
F0.0016917370958253741
I-1
tp348
a((F87.091209411621094
F78.79681396484375
tF64.281608581542969
F208.10330200195312
F0.0014866291312500834
I-1
tp349
a((F136.85762023925781
F78.79681396484375
tF64.281608581542969
F26.408096313476562
F0.00099261046852916479
I-1
tp350
a((F64.281608581542969
F82.944015502929688
tF64.281608581542969
F256.23385620117188
F0.0012415811652317643
I-1
tp351
a((F72.576011657714844
F82.944015502929688
tF64.281608581542969
F235.73182678222656
F0.001957310363650322
I-1
tp352
a((F80.870414733886719
F82.944015502929688
tF64.281608581542969
F212.62242126464844
F0.0014202053425833583
I-1
tp353
a((F176.25602722167969
F82.944015502929688
tF64.281608581542969
F352.15298461914062
F0.00038181891432031989
I-1
tp354
a((F87.091209411621094
F85.017608642578125
tF64.281608581542969
F194.99635314941406
F0.0007019885815680027
I-1
tp355
a((F124.416015625
F87.091209411621094
tF64.281608581542969
F48.347553253173828
F-8.3432889368850738e-05
I-1
tp356
a((F70.502410888671875
F89.164810180664062
tF64.281608581542969
F231.83795166015625
F0.00071991782169789076
I-1
tp357
a((F93.31201171875
F89.164810180664062
tF64.281608581542969
F169.93038940429688
F-5.1203121984144673e-05
I-1
tp358
a((F134.78401184082031
F89.164810180664062
tF64.281608581542969
F45.787555694580078
F0.00037498291931115091
I-1
tp359
a((F176.25602722167969
F89.164810180664062
tF64.281608581542969
F296.60055541992188
F0.00024968007346615195
I-1
tp360
a((F103.68001556396484
F91.238410949707031
tF64.281608581542969
F126.482666015625
F0.00013920613855589181
I-1
tp361
a((F107.82721710205078
F91.238410949707031
tF64.281608581542969
F93.691810607910156
F0.00024399877293035388
I-1
tp362
a((F99.532814025878906
F93.31201171875
tF64.281608581542969
F136.68521118164062
F-6.271251095313346e-06
I-1
tp363
a((F80.870414733886719
F95.385612487792969
tF64.281608581542969
F205.91340637207031
F0.0010736974654719234
I-1
tp364
a((F103.68001556396484
F95.385612487792969
tF64.281608581542969
F113.49094390869141
F0.00039752674638293684
I-1
tp365
a((F66.355209350585938
F97.459213256835938
tF64.281608581542969
F242.16943359375
F0.00087105814600363374
I-1
tp366
a((F95.385612487792969
F97.459213256835938
tF64.281608581542969
F138.57754516601562
F0.00052553333807736635
I-1
tp367
a((F89.164810180664062
F99.532814025878906
tF64.281608581542969
F158.23379516601562
F0.0009802371496334672
I-1
tp368
a((F99.532814025878906
F99.532814025878906
tF64.281608581542969
F115.85818481445312
F0.00058903865283355117
I-1
tp369
a((F111.97441864013672
F99.532814025878906
tF64.281608581542969
F73.075233459472656
F0.00041669883648864925
I-1
tp370
a((F141.00482177734375
F99.532814025878906
tF64.281608581542969
F39.701240539550781
F0.0002686954103410244
I-1
tp371
a((F126.90435028076172
F77.137939453125
tF77.137939453125
F13.721225738525391
F0.00087238504784181714
I-1
tp372
a((F139.345947265625
F77.137939453125
tF77.137939453125
F348.47616577148438
F0.00091942609287798405
I-1
tp373
a((F89.579544067382812
F79.626258850097656
tF77.137939453125
F214.30409240722656
F0.00081893859896808863
I-1
tp374
a((F82.114578247070312
F82.114578247070312
tF77.137939453125
F220.10044860839844
F0.00067849073093384504
I-1
tp375
a((F87.091217041015625
F84.602897644042969
tF77.137939453125
F218.34867858886719
F0.0004753466637339443
I-1
tp376
a.